; ModuleID = 'source-C-CXX/12/1986.c'
source_filename = "source-C-CXX/12/1986.c"
target datalayout = "e-m:e-p270:32:32-p271:32:32-p272:64:64-i64:64-f80:128-n8:16:32:64-S128"
target triple = "x86_64-pc-linux-gnu"

@.str = private unnamed_addr constant [3 x i8] c"%d\00", align 1
@.str.1 = private unnamed_addr constant [4 x i8] c" %d\00", align 1

; Function Attrs: nofree nounwind sspstrong uwtable
define dso_local i32 @main() local_unnamed_addr #0 {
  %1 = alloca i32, align 4
  %2 = alloca [20000 x i8], align 16
  %3 = bitcast i32* %1 to i8*
  call void @llvm.lifetime.start.p0i8(i64 4, i8* nonnull %3) #3
  %4 = getelementptr inbounds [20000 x i8], [20000 x i8]* %2, i64 0, i64 0
  call void @llvm.lifetime.start.p0i8(i64 20000, i8* nonnull %4) #3
  %5 = call i32 (i8*, ...) @__isoc99_scanf(i8* getelementptr inbounds ([3 x i8], [3 x i8]* @.str, i64 0, i64 0), i32* nonnull %1)
  %6 = load i32, i32* %1, align 4, !tbaa !5
  %7 = icmp slt i32 %6, 1
  br i1 %7, label %37, label %8

8:                                                ; preds = %0, %32
  %9 = phi i64 [ %33, %32 ], [ 1, %0 ]
  %10 = add nsw i64 %9, -1
  %11 = getelementptr inbounds [20000 x i8], [20000 x i8]* %2, i64 0, i64 %10
  %12 = call i32 (i8*, ...) @__isoc99_scanf(i8* getelementptr inbounds ([3 x i8], [3 x i8]* @.str, i64 0, i64 0), i8* nonnull %11)
  %13 = icmp ugt i64 %9, 1
  br i1 %13, label %14, label %25

14:                                               ; preds = %8
  %15 = load i8, i8* %11, align 1, !tbaa !9
  br label %18

16:                                               ; preds = %18
  %17 = icmp eq i64 %24, %9
  br i1 %17, label %27, label %18, !llvm.loop !10

18:                                               ; preds = %14, %16
  %19 = phi i64 [ 1, %14 ], [ %24, %16 ]
  %20 = add nsw i64 %19, -1
  %21 = getelementptr inbounds [20000 x i8], [20000 x i8]* %2, i64 0, i64 %20
  %22 = load i8, i8* %21, align 1, !tbaa !9
  %23 = icmp eq i8 %15, %22
  %24 = add nuw nsw i64 %19, 1
  br i1 %23, label %32, label %16

25:                                               ; preds = %8
  %26 = load i8, i8* %4, align 16, !tbaa !9
  br label %27

27:                                               ; preds = %16, %25
  %28 = phi i8 [ %26, %25 ], [ %15, %16 ]
  %29 = phi i8* [ getelementptr inbounds ([3 x i8], [3 x i8]* @.str, i64 0, i64 0), %25 ], [ getelementptr inbounds ([4 x i8], [4 x i8]* @.str.1, i64 0, i64 0), %16 ]
  %30 = sext i8 %28 to i32
  %31 = call i32 (i8*, ...) @printf(i8* nonnull dereferenceable(1) %29, i32 %30)
  br label %32

32:                                               ; preds = %18, %27
  %33 = add nuw nsw i64 %9, 1
  %34 = load i32, i32* %1, align 4, !tbaa !5
  %35 = sext i32 %34 to i64
  %36 = icmp slt i64 %9, %35
  br i1 %36, label %8, label %37, !llvm.loop !12

37:                                               ; preds = %32, %0
  call void @llvm.lifetime.end.p0i8(i64 20000, i8* nonnull %4) #3
  call void @llvm.lifetime.end.p0i8(i64 4, i8* nonnull %3) #3
  ret i32 0
}

; Function Attrs: argmemonly mustprogress nofree nosync nounwind willreturn
declare void @llvm.lifetime.start.p0i8(i64 immarg, i8* nocapture) #1

; Function Attrs: nofree nounwind
declare noundef i32 @__isoc99_scanf(i8* nocapture noundef readonly, ...) local_unnamed_addr #2

; Function Attrs: nofree nounwind
declare noundef i32 @printf(i8* nocapture noundef readonly, ...) local_unnamed_addr #2

; Function Attrs: argmemonly mustprogress nofree nosync nounwind willreturn
declare void @llvm.lifetime.end.p0i8(i64 immarg, i8* nocapture) #1


!llvm.module.flags = !{!0, !1, !2, !3}
!llvm.ident = !{!4}

!0 = !{i32 1, !"wchar_size", i32 4}
!1 = !{i32 7, !"PIC Level", i32 2}
!2 = !{i32 7, !"PIE Level", i32 2}
!3 = !{i32 7, !"uwtable", i32 1}
!4 = !{!"clang version 13.0.0"}
!5 = !{!6, !6, i64 0}
!6 = !{!"int", !7, i64 0}
!7 = !{!"omnipotent char", !8, i64 0}
!8 = !{!"Simple C/C++ TBAA"}
!9 = !{!7, !7, i64 0}
!10 = distinct !{!10, !11}
!11 = !{!"llvm.loop.mustprogress"}
!12 = distinct !{!12, !11}
